(lp1
(imodels
ReciteRecord
p2
(dp3
S'wordName'
p4
S'peel'
p5
sS'lastTime'
p6
F1378022445.164
sS'strange'
p7
I1
sS'startTime'
p8
F1378022445.164
sS'stage'
p9
I0
sba(imodels
ReciteRecord
p10
(dp11
g4
S'amateur'
p12
sg6
F1378022460.553
sg7
I1
sg8
F1378022460.553
sg9
I0
sba(imodels
ReciteRecord
p13
(dp14
g4
S'curriculum'
p15
sg6
F1378022620.7079999
sg7
I1
sg8
F1378022620.7079999
sg9
I0
sba(imodels
ReciteRecord
p16
(dp17
g4
S'peer'
p18
sg6
F1378022631.8610001
sg7
I0
sg8
F1378022631.8610001
sg9
I0
sba(imodels
ReciteRecord
p19
(dp20
g4
S'contaminate'
p21
sg6
F1378022634.8900001
sg7
I0
sg8
F1378022634.8900001
sg9
I0
sba(imodels
ReciteRecord
p22
(dp23
g4
S'conceive'
p24
sg6
F1378022642.7820001
sg7
I0
sg8
F1377855576.734
sg9
I2
sba(imodels
ReciteRecord
p25
(dp26
g4
S'violate'
p27
sg6
F1378022645.23
sg7
I1
sg8
F1377945266.6159999
sg9
I1
sba(imodels
ReciteRecord
p28
(dp29
g4
S'alert'
p30
sg6
F1378022646.915
sg7
I0
sg8
F1377952865.576
sg9
I1
sba(imodels
ReciteRecord
p31
(dp32
g4
S'ritual'
p33
sg6
F1378022648.9349999
sg7
I0
sg8
F1377945438.6949999
sg9
I1
sba(imodels
ReciteRecord
p34
(dp35
g4
S'hostage'
p36
sg6
F1378022651.5710001
sg7
I0
sg8
F1377785920.714
sg9
I1
sba(imodels
ReciteRecord
p37
(dp38
g4
S'database'
p39
sg6
F1378022654.395
sg7
I0
sg8
F1377952878.0769999
sg9
I1
sba(imodels
ReciteRecord
p40
(dp41
g4
S'armor'
p42
sg6
F1378022656.303
sg7
I0
sg8
F1377949738.869
sg9
I1
sba(imodels
ReciteRecord
p43
(dp44
g4
S'hasty'
p45
sg6
F1378022658.2190001
sg7
I1
sg8
F1377945268.2869999
sg9
I2
sba(imodels
ReciteRecord
p46
(dp47
g4
S'fashion'
p48
sg6
F1378022660.405
sg7
I1
sg8
F1377859783.023
sg9
I1
sba(imodels
ReciteRecord
p49
(dp50
g4
S'immune'
p51
sg6
F1378022662.6229999
sg7
I0
sg8
F1377855574.1559999
sg9
I2
sba(imodels
ReciteRecord
p52
(dp53
g4
S'guy'
p54
sg6
F1378022664.1619999
sg7
I0
sg8
F1377945261.707
sg9
I1
sba(imodels
ReciteRecord
p55
(dp56
g4
S'kid'
p57
sg6
F1378022665.8499999
sg7
I0
sg8
F1377859784.427
sg9
I1
sba(imodels
ReciteRecord
p58
(dp59
g4
S'subjective'
p60
sg6
F1378022670.174
sg7
I0
sg8
F1377920559.7179999
sg9
I2
sba(imodels
ReciteRecord
p61
(dp62
g4
S'arch'
p63
sg6
F1378022672.312
sg7
I0
sg8
F1377949712.454
sg9
I1
sba(imodels
ReciteRecord
p64
(dp65
g4
S'swift'
p66
sg6
F1378022674.6099999
sg7
I0
sg8
F1377945441.0120001
sg9
I2
sba(imodels
ReciteRecord
p67
(dp68
g4
S'cucumber'
p69
sg6
F1378022677.198
sg7
I0
sg8
F1377949718.1370001
sg9
I1
sba(imodels
ReciteRecord
p70
(dp71
g4
S'spectacular'
p72
sg6
F1378022686.569
sg7
I1
sg8
F1377952871.7620001
sg9
I1
sba(imodels
ReciteRecord
p73
(dp74
g4
S'probe'
p75
sg6
F1378022688.6210001
sg7
I0
sg8
F1377949709.6960001
sg9
I1
sba(imodels
ReciteRecord
p76
(dp77
g4
S'breach'
p78
sg6
F1378022690.921
sg7
I0
sg8
F1377945272.881
sg9
I2
sba(imodels
ReciteRecord
p79
(dp80
g4
S'sugar'
p81
sg6
F1378022693.151
sg7
I0
sg8
F1377859778.7490001
sg9
I1
sba(imodels
ReciteRecord
p82
(dp83
g4
S'soar'
p84
sg6
F1378022695.1159999
sg7
I0
sg8
F1377920562.687
sg9
I1
sba(imodels
ReciteRecord
p85
(dp86
g4
S'hearing'
p87
sg6
F1378022697.3959999
sg7
I0
sg8
F1377952867.6170001
sg9
I1
sba(imodels
ReciteRecord
p88
(dp89
g4
S'robust'
p90
sg6
F1378022702.211
sg7
I1
sg8
F1377945270.8840001
sg9
I1
sba(imodels
ReciteRecord
p91
(dp92
g4
S'vocal'
p93
sg6
F1378022704.293
sg7
I0
sg8
F1377949714.885
sg9
I1
sba(imodels
ReciteRecord
p94
(dp95
g4
S'quest'
p96
sg6
F1378022706.247
sg7
I0
sg8
F1377952874.5350001
sg9
I1
sba(imodels
ReciteRecord
p97
(dp98
g4
S'grin'
p99
sg6
F1378022708.095
sg7
I1
sg8
F1377952882.882
sg9
I1
sba(imodels
ReciteRecord
p100
(dp101
g4
S'ambiguous'
p102
sg6
F1378022717.1440001
sg7
I2
sg8
F1377945133.2049999
sg9
I1
sba(imodels
ReciteRecord
p103
(dp104
g4
S'fact'
p105
sg6
F1378022719.7869999
sg7
I0
sg8
F1377859776.425
sg9
I2
sba(imodels
ReciteRecord
p106
(dp107
g4
S'transplant'
p108
sg6
F1378031101.2969999
sg7
I1
sg8
F1378031101.2969999
sg9
I0
sba(imodels
ReciteRecord
p109
(dp110
g4
S'ornament'
p111
sg6
F1378031106.1619999
sg7
I0
sg8
F1378031106.1619999
sg9
I0
sba.